Certificate:
    Data:
        Version: 3 (0x2)
        Serial Number:
            77:d3:6d:95:6e:c8:ae:62:05:e5:8e:3a:cb:98:5a:81
        Signature Algorithm: ecdsa-with-SHA256
        Issuer: O = Microchip Technology Inc, CN = Crypto Authentication Root CA 002
        Validity
            Not Before: Nov  8 19:12:19 2018 GMT
            Not After : Nov  8 19:12:19 2058 GMT
        Subject: O = Microchip Technology Inc, CN = Crypto Authentication Root CA 002
        Subject Public Key Info:
            Public Key Algorithm: id-ecPublicKey
                Public-Key: (256 bit)
                pub:
                    04:bd:54:e6:6d:e3:87:54:84:00:6b:53:ae:15:80:
                    d5:0a:a0:69:e7:8a:df:55:78:d8:5c:e2:d5:4d:d5:
                    b8:30:29:6b:ff:dd:6e:6f:72:56:fb:d9:9e:f1:a1:
                    16:b1:1d:33:ad:49:10:3a:a1:85:87:39:dc:fa:e4:
                    37:e1:9d:63:4e
                ASN1 OID: prime256v1
                NIST CURVE: P-256
        X509v3 extensions:
            X509v3 Subject Key Identifier: 
                7A:ED:7D:6D:C6:B7:78:9D:B2:38:01:A5:E8:4A:8C:B0:A4:0E:2A:8C
            X509v3 Authority Key Identifier: 
                keyid:7A:ED:7D:6D:C6:B7:78:9D:B2:38:01:A5:E8:4A:8C:B0:A4:0E:2A:8C

            X509v3 Basic Constraints: critical
                CA:TRUE
    Signature Algorithm: ecdsa-with-SHA256
         30:45:02:21:00:a1:dc:63:45:90:ec:81:9e:e1:de:5b:81:12:
         65:51:ad:d4:c2:c4:f8:e5:95:28:2e:e0:4b:e7:68:ec:7c:02:
         73:02:20:3e:6b:a7:4e:9e:4c:0a:d6:8c:24:b0:fb:2e:e7:93:
         d2:e6:be:94:65:ca:15:d0:ea:5b:c8:7f:55:79:99:5c:ad
-----BEGIN CERTIFICATE-----
MIIB8TCCAZegAwIBAgIQd9NtlW7IrmIF5Y46y5hagTAKBggqhkjOPQQDAjBPMSEw
HwYDVQQKDBhNaWNyb2NoaXAgVGVjaG5vbG9neSBJbmMxKjAoBgNVBAMMIUNyeXB0
byBBdXRoZW50aWNhdGlvbiBSb290IENBIDAwMjAgFw0xODExMDgxOTEyMTlaGA8y
MDU4MTEwODE5MTIxOVowTzEhMB8GA1UECgwYTWljcm9jaGlwIFRlY2hub2xvZ3kg
SW5jMSowKAYDVQQDDCFDcnlwdG8gQXV0aGVudGljYXRpb24gUm9vdCBDQSAwMDIw
WTATBgcqhkjOPQIBBggqhkjOPQMBBwNCAAS9VOZt44dUhABrU64VgNUKoGnnit9V
eNhc4tVN1bgwKWv/3W5vclb72Z7xoRaxHTOtSRA6oYWHOdz65DfhnWNOo1MwUTAd
BgNVHQ4EFgQUeu19bca3eJ2yOAGl6EqMsKQOKowwHwYDVR0jBBgwFoAUeu19bca3
eJ2yOAGl6EqMsKQOKowwDwYDVR0TAQH/BAUwAwEB/zAKBggqhkjOPQQDAgNIADBF
AiEAodxjRZDsgZ7h3luBEmVRrdTCxPjllSgu4EvnaOx8AnMCID5rp06eTArWjCSw
+y7nk9LmvpRlyhXQ6lvIf1V5mVyt
-----END CERTIFICATE-----
